target datalayout = "e-m:e-p270:32:32-p271:32:32-p272:64:64-i64:64-i128:128-f80:128-n8:16:32:64-S128"
target triple = "x86_64-pc-linux-gnu"

%struct._zend_extension = type { ptr, ptr, ptr, ptr, ptr, ptr, ptr, ptr, ptr, ptr, ptr, ptr, ptr, ptr, ptr, ptr, ptr, ptr, ptr, ptr, ptr, ptr, ptr, ptr, ptr, i32 }
%struct._zend_extension_persist_data = type { ptr, i64, ptr }

; Function Attrs: nounwind uwtable
define internal void @zend_extension_op_array_persist_calc_handler(ptr noundef %0, ptr noundef %1) #0 {
  %3 = alloca ptr, align 8
  %4 = alloca ptr, align 8
  store ptr %0, ptr %3, align 8, !tbaa !14
  store ptr %1, ptr %4, align 8, !tbaa !93
  %5 = load ptr, ptr %3, align 8, !tbaa !14
  %6 = getelementptr inbounds nuw %struct._zend_extension, ptr %5, i32 0, i32 18
  %7 = load ptr, ptr %6, align 8, !tbaa !39
  %8 = icmp ne ptr %7, null
  br i1 %8, label %9, label %21

9:                                                ; preds = %2
  %10 = load ptr, ptr %3, align 8, !tbaa !14
  %11 = getelementptr inbounds nuw %struct._zend_extension, ptr %10, i32 0, i32 18
  %12 = load ptr, ptr %11, align 8, !tbaa !39
  %13 = load ptr, ptr %4, align 8, !tbaa !93
  %14 = getelementptr inbounds nuw %struct._zend_extension_persist_data, ptr %13, i32 0, i32 0
  %15 = load ptr, ptr %14, align 8, !tbaa !89
  %16 = call i64 %12(ptr noundef %15)
  %17 = load ptr, ptr %4, align 8, !tbaa !93
  %18 = getelementptr inbounds nuw %struct._zend_extension_persist_data, ptr %17, i32 0, i32 1
  %19 = load i64, ptr %18, align 8, !tbaa !91
  %20 = add i64 %19, %16
  store i64 %20, ptr %18, align 8, !tbaa !91
  br label %21

21:                                               ; preds = %9, %2
  ret void
}