; Function Attrs: nounwind uwtable
define internal void @zend_extension_op_array_persist_calc_handler(ptr noundef readonly captures(none) %0, ptr noundef captures(none) %1) #0 {
  %3 = getelementptr inbounds nuw i8, ptr %0, i64 144
  %4 = load ptr, ptr %3, align 8, !tbaa !30
  %.not = icmp eq ptr %4, null
  br i1 %.not, label %11, label %5

5:                                                ; preds = %2
  %6 = load ptr, ptr %1, align 8, !tbaa !71
  %7 = tail call i64 %4(ptr noundef %6) #14
  %8 = getelementptr inbounds nuw i8, ptr %1, i64 8
  %9 = load i64, ptr %8, align 8, !tbaa !73
  %10 = add i64 %9, %7
  store i64 %10, ptr %8, align 8, !tbaa !73
  br label %11

11:                                               ; preds = %5, %2
  ret void
}